; ModuleID = 'source-C-CXX/57/1178.cpp'
source_filename = "source-C-CXX/57/1178.cpp"
target datalayout = "e-m:e-p270:32:32-p271:32:32-p272:64:64-i64:64-f80:128-n8:16:32:64-S128"
target triple = "x86_64-pc-linux-gnu"

%"class.std::ios_base::Init" = type { i8 }
%"class.std::basic_istream" = type { i32 (...)**, i64, %"class.std::basic_ios" }
%"class.std::basic_ios" = type { %"class.std::ios_base", %"class.std::basic_ostream"*, i8, i8, %"class.std::basic_streambuf"*, %"class.std::ctype"*, %"class.std::num_put"*, %"class.std::num_get"* }
%"class.std::ios_base" = type { i32 (...)**, i64, i64, i32, i32, i32, %"struct.std::ios_base::_Callback_list"*, %"struct.std::ios_base::_Words", [8 x %"struct.std::ios_base::_Words"], i32, %"struct.std::ios_base::_Words"*, %"class.std::locale" }
%"struct.std::ios_base::_Callback_list" = type { %"struct.std::ios_base::_Callback_list"*, void (i32, %"class.std::ios_base"*, i32)*, i32, i32 }
%"struct.std::ios_base::_Words" = type { i8*, i64 }
%"class.std::locale" = type { %"class.std::locale::_Impl"* }
%"class.std::locale::_Impl" = type { i32, %"class.std::locale::facet"**, i64, %"class.std::locale::facet"**, i8** }
%"class.std::locale::facet" = type <{ i32 (...)**, i32, [4 x i8] }>
%"class.std::basic_ostream" = type { i32 (...)**, %"class.std::basic_ios" }
%"class.std::basic_streambuf" = type { i32 (...)**, i8*, i8*, i8*, i8*, i8*, i8*, %"class.std::locale" }
%"class.std::ctype" = type <{ %"class.std::locale::facet.base", [4 x i8], %struct.__locale_struct*, i8, [7 x i8], i32*, i32*, i16*, i8, [256 x i8], [256 x i8], i8, [6 x i8] }>
%"class.std::locale::facet.base" = type <{ i32 (...)**, i32 }>
%struct.__locale_struct = type { [13 x %struct.__locale_data*], i16*, i32*, i32*, [13 x i8*] }
%struct.__locale_data = type opaque
%"class.std::num_put" = type { %"class.std::locale::facet.base", [4 x i8] }
%"class.std::num_get" = type { %"class.std::locale::facet.base", [4 x i8] }

@_ZStL8__ioinit = internal global %"class.std::ios_base::Init" zeroinitializer, align 1
@__dso_handle = external hidden global i8
@_ZSt3cin = external global %"class.std::basic_istream", align 8
@_ZSt4cout = external global %"class.std::basic_ostream", align 8
@llvm.global_ctors = appending global [1 x { i32, void ()*, i8* }] [{ i32, void ()*, i8* } { i32 65535, void ()* @_GLOBAL__sub_I_1178.cpp, i8* null }]

declare void @_ZNSt8ios_base4InitC1Ev(%"class.std::ios_base::Init"* nonnull align 1 dereferenceable(1)) unnamed_addr #0

; Function Attrs: nounwind
declare void @_ZNSt8ios_base4InitD1Ev(%"class.std::ios_base::Init"* nonnull align 1 dereferenceable(1)) unnamed_addr #1

; Function Attrs: nofree nounwind
declare i32 @__cxa_atexit(void (i8*)*, i8*, i8*) local_unnamed_addr #2

; Function Attrs: mustprogress norecurse sspstrong uwtable
define dso_local i32 @main() local_unnamed_addr #3 {
  %1 = alloca i32, align 4
  %2 = alloca [100 x [81 x i8]], align 16
  %3 = bitcast i32* %1 to i8*
  call void @llvm.lifetime.start.p0i8(i64 4, i8* nonnull %3) #7
  %4 = call nonnull align 8 dereferenceable(16) %"class.std::basic_istream"* @_ZNSirsERi(%"class.std::basic_istream"* nonnull align 8 dereferenceable(16) @_ZSt3cin, i32* nonnull align 4 dereferenceable(4) %1)
  %5 = getelementptr inbounds [100 x [81 x i8]], [100 x [81 x i8]]* %2, i64 0, i64 0, i64 0
  call void @llvm.lifetime.start.p0i8(i64 8100, i8* nonnull %5) #7
  %6 = load i32, i32* %1, align 4, !tbaa !5
  %7 = icmp sgt i32 %6, 0
  br i1 %7, label %10, label %102

8:                                                ; preds = %37
  %9 = icmp sgt i32 %41, 0
  br i1 %9, label %44, label %102

10:                                               ; preds = %0, %37
  %11 = phi i64 [ %40, %37 ], [ 0, %0 ]
  %12 = call i32 @_ZNSi3getEv(%"class.std::basic_istream"* nonnull align 8 dereferenceable(16) @_ZSt3cin)
  %13 = getelementptr inbounds [100 x [81 x i8]], [100 x [81 x i8]]* %2, i64 0, i64 %11, i64 0
  %14 = load i8*, i8** bitcast (%"class.std::basic_istream"* @_ZSt3cin to i8**), align 8, !tbaa !9
  %15 = getelementptr i8, i8* %14, i64 -24
  %16 = bitcast i8* %15 to i64*
  %17 = load i64, i64* %16, align 8
  %18 = add nsw i64 %17, 240
  %19 = getelementptr inbounds i8, i8* bitcast (%"class.std::basic_istream"* @_ZSt3cin to i8*), i64 %18
  %20 = bitcast i8* %19 to %"class.std::ctype"**
  %21 = load %"class.std::ctype"*, %"class.std::ctype"** %20, align 8, !tbaa !11
  %22 = icmp eq %"class.std::ctype"* %21, null
  br i1 %22, label %23, label %24

23:                                               ; preds = %10
  call void @_ZSt16__throw_bad_castv() #8
  unreachable

24:                                               ; preds = %10
  %25 = getelementptr inbounds %"class.std::ctype", %"class.std::ctype"* %21, i64 0, i32 8
  %26 = load i8, i8* %25, align 8, !tbaa !15
  %27 = icmp eq i8 %26, 0
  br i1 %27, label %31, label %28

28:                                               ; preds = %24
  %29 = getelementptr inbounds %"class.std::ctype", %"class.std::ctype"* %21, i64 0, i32 9, i64 10
  %30 = load i8, i8* %29, align 1, !tbaa !17
  br label %37

31:                                               ; preds = %24
  call void @_ZNKSt5ctypeIcE13_M_widen_initEv(%"class.std::ctype"* nonnull align 8 dereferenceable(570) %21)
  %32 = bitcast %"class.std::ctype"* %21 to i8 (%"class.std::ctype"*, i8)***
  %33 = load i8 (%"class.std::ctype"*, i8)**, i8 (%"class.std::ctype"*, i8)*** %32, align 8, !tbaa !9
  %34 = getelementptr inbounds i8 (%"class.std::ctype"*, i8)*, i8 (%"class.std::ctype"*, i8)** %33, i64 6
  %35 = load i8 (%"class.std::ctype"*, i8)*, i8 (%"class.std::ctype"*, i8)** %34, align 8
  %36 = call signext i8 %35(%"class.std::ctype"* nonnull align 8 dereferenceable(570) %21, i8 signext 10)
  br label %37

37:                                               ; preds = %28, %31
  %38 = phi i8 [ %30, %28 ], [ %36, %31 ]
  %39 = call nonnull align 8 dereferenceable(16) %"class.std::basic_istream"* @_ZNSi3getEPclc(%"class.std::basic_istream"* nonnull align 8 dereferenceable(16) @_ZSt3cin, i8* nonnull %13, i64 81, i8 signext %38)
  %40 = add nuw nsw i64 %11, 1
  %41 = load i32, i32* %1, align 4, !tbaa !5
  %42 = sext i32 %41 to i64
  %43 = icmp slt i64 %40, %42
  br i1 %43, label %10, label %8, !llvm.loop !18

44:                                               ; preds = %8, %94
  %45 = phi i64 [ %98, %94 ], [ 0, %8 ]
  %46 = getelementptr inbounds [100 x [81 x i8]], [100 x [81 x i8]]* %2, i64 0, i64 %45, i64 0
  %47 = load i8, i8* %46, align 1, !tbaa !17
  %48 = icmp eq i8 %47, 95
  %49 = and i8 %47, -33
  %50 = add i8 %49, -65
  %51 = icmp ult i8 %50, 26
  %52 = or i1 %51, %48
  br i1 %52, label %53, label %66

53:                                               ; preds = %44, %64
  %54 = phi i64 [ %65, %64 ], [ 1, %44 ]
  %55 = getelementptr inbounds [100 x [81 x i8]], [100 x [81 x i8]]* %2, i64 0, i64 %45, i64 %54
  %56 = load i8, i8* %55, align 1, !tbaa !17
  switch i8 %56, label %57 [
    i8 0, label %66
    i8 95, label %64
  ]

57:                                               ; preds = %53
  %58 = and i8 %56, -33
  %59 = add i8 %58, -65
  %60 = icmp ult i8 %59, 26
  %61 = add i8 %56, -48
  %62 = icmp ult i8 %61, 10
  %63 = select i1 %60, i1 true, i1 %62
  br i1 %63, label %64, label %66

64:                                               ; preds = %57, %53
  %65 = add nuw i64 %54, 1
  br label %53, !llvm.loop !20

66:                                               ; preds = %57, %53, %44
  %67 = phi i32 [ 0, %44 ], [ 0, %57 ], [ 1, %53 ]
  %68 = call nonnull align 8 dereferenceable(8) %"class.std::basic_ostream"* @_ZNSolsEi(%"class.std::basic_ostream"* nonnull align 8 dereferenceable(8) @_ZSt4cout, i32 %67)
  %69 = bitcast %"class.std::basic_ostream"* %68 to i8**
  %70 = load i8*, i8** %69, align 8, !tbaa !9
  %71 = getelementptr i8, i8* %70, i64 -24
  %72 = bitcast i8* %71 to i64*
  %73 = load i64, i64* %72, align 8
  %74 = bitcast %"class.std::basic_ostream"* %68 to i8*
  %75 = add nsw i64 %73, 240
  %76 = getelementptr inbounds i8, i8* %74, i64 %75
  %77 = bitcast i8* %76 to %"class.std::ctype"**
  %78 = load %"class.std::ctype"*, %"class.std::ctype"** %77, align 8, !tbaa !11
  %79 = icmp eq %"class.std::ctype"* %78, null
  br i1 %79, label %80, label %81

80:                                               ; preds = %66
  call void @_ZSt16__throw_bad_castv() #8
  unreachable

81:                                               ; preds = %66
  %82 = getelementptr inbounds %"class.std::ctype", %"class.std::ctype"* %78, i64 0, i32 8
  %83 = load i8, i8* %82, align 8, !tbaa !15
  %84 = icmp eq i8 %83, 0
  br i1 %84, label %88, label %85

85:                                               ; preds = %81
  %86 = getelementptr inbounds %"class.std::ctype", %"class.std::ctype"* %78, i64 0, i32 9, i64 10
  %87 = load i8, i8* %86, align 1, !tbaa !17
  br label %94

88:                                               ; preds = %81
  call void @_ZNKSt5ctypeIcE13_M_widen_initEv(%"class.std::ctype"* nonnull align 8 dereferenceable(570) %78)
  %89 = bitcast %"class.std::ctype"* %78 to i8 (%"class.std::ctype"*, i8)***
  %90 = load i8 (%"class.std::ctype"*, i8)**, i8 (%"class.std::ctype"*, i8)*** %89, align 8, !tbaa !9
  %91 = getelementptr inbounds i8 (%"class.std::ctype"*, i8)*, i8 (%"class.std::ctype"*, i8)** %90, i64 6
  %92 = load i8 (%"class.std::ctype"*, i8)*, i8 (%"class.std::ctype"*, i8)** %91, align 8
  %93 = call signext i8 %92(%"class.std::ctype"* nonnull align 8 dereferenceable(570) %78, i8 signext 10)
  br label %94

94:                                               ; preds = %85, %88
  %95 = phi i8 [ %87, %85 ], [ %93, %88 ]
  %96 = call nonnull align 8 dereferenceable(8) %"class.std::basic_ostream"* @_ZNSo3putEc(%"class.std::basic_ostream"* nonnull align 8 dereferenceable(8) %68, i8 signext %95)
  %97 = call nonnull align 8 dereferenceable(8) %"class.std::basic_ostream"* @_ZNSo5flushEv(%"class.std::basic_ostream"* nonnull align 8 dereferenceable(8) %96)
  %98 = add nuw nsw i64 %45, 1
  %99 = load i32, i32* %1, align 4, !tbaa !5
  %100 = sext i32 %99 to i64
  %101 = icmp slt i64 %98, %100
  br i1 %101, label %44, label %102, !llvm.loop !21

102:                                              ; preds = %94, %0, %8
  call void @llvm.lifetime.end.p0i8(i64 8100, i8* nonnull %5) #7
  call void @llvm.lifetime.end.p0i8(i64 4, i8* nonnull %3) #7
  ret i32 0
}

; Function Attrs: argmemonly mustprogress nofree nosync nounwind willreturn
declare void @llvm.lifetime.start.p0i8(i64 immarg, i8* nocapture) #4

declare nonnull align 8 dereferenceable(16) %"class.std::basic_istream"* @_ZNSirsERi(%"class.std::basic_istream"* nonnull align 8 dereferenceable(16), i32* nonnull align 4 dereferenceable(4)) local_unnamed_addr #0

declare i32 @_ZNSi3getEv(%"class.std::basic_istream"* nonnull align 8 dereferenceable(16)) local_unnamed_addr #0

declare nonnull align 8 dereferenceable(8) %"class.std::basic_ostream"* @_ZNSolsEi(%"class.std::basic_ostream"* nonnull align 8 dereferenceable(8), i32) local_unnamed_addr #0

; Function Attrs: argmemonly mustprogress nofree nosync nounwind willreturn
declare void @llvm.lifetime.end.p0i8(i64 immarg, i8* nocapture) #4

declare nonnull align 8 dereferenceable(16) %"class.std::basic_istream"* @_ZNSi3getEPclc(%"class.std::basic_istream"* nonnull align 8 dereferenceable(16), i8*, i64, i8 signext) local_unnamed_addr #0

; Function Attrs: noreturn
declare void @_ZSt16__throw_bad_castv() local_unnamed_addr #5

declare void @_ZNKSt5ctypeIcE13_M_widen_initEv(%"class.std::ctype"* nonnull align 8 dereferenceable(570)) local_unnamed_addr #0

declare nonnull align 8 dereferenceable(8) %"class.std::basic_ostream"* @_ZNSo3putEc(%"class.std::basic_ostream"* nonnull align 8 dereferenceable(8), i8 signext) local_unnamed_addr #0

declare nonnull align 8 dereferenceable(8) %"class.std::basic_ostream"* @_ZNSo5flushEv(%"class.std::basic_ostream"* nonnull align 8 dereferenceable(8)) local_unnamed_addr #0

; Function Attrs: sspstrong uwtable
define internal void @_GLOBAL__sub_I_1178.cpp() #6 section ".text.startup" {
  tail call void @_ZNSt8ios_base4InitC1Ev(%"class.std::ios_base::Init"* nonnull align 1 dereferenceable(1) @_ZStL8__ioinit)
  %1 = tail call i32 @__cxa_atexit(void (i8*)* bitcast (void (%"class.std::ios_base::Init"*)* @_ZNSt8ios_base4InitD1Ev to void (i8*)*), i8* getelementptr inbounds (%"class.std::ios_base::Init", %"class.std::ios_base::Init"* @_ZStL8__ioinit, i64 0, i32 0), i8* nonnull @__dso_handle) #7
  ret void
}


!llvm.module.flags = !{!0, !1, !2, !3}
!llvm.ident = !{!4}

!0 = !{i32 1, !"wchar_size", i32 4}
!1 = !{i32 7, !"PIC Level", i32 2}
!2 = !{i32 7, !"PIE Level", i32 2}
!3 = !{i32 7, !"uwtable", i32 1}
!4 = !{!"clang version 13.0.0"}
!5 = !{!6, !6, i64 0}
!6 = !{!"int", !7, i64 0}
!7 = !{!"omnipotent char", !8, i64 0}
!8 = !{!"Simple C++ TBAA"}
!9 = !{!10, !10, i64 0}
!10 = !{!"vtable pointer", !8, i64 0}
!11 = !{!12, !13, i64 240}
!12 = !{!"_ZTSSt9basic_iosIcSt11char_traitsIcEE", !13, i64 216, !7, i64 224, !14, i64 225, !13, i64 232, !13, i64 240, !13, i64 248, !13, i64 256}
!13 = !{!"any pointer", !7, i64 0}
!14 = !{!"bool", !7, i64 0}
!15 = !{!16, !7, i64 56}
!16 = !{!"_ZTSSt5ctypeIcE", !13, i64 16, !14, i64 24, !13, i64 32, !13, i64 40, !13, i64 48, !7, i64 56, !7, i64 57, !7, i64 313, !7, i64 569}
!17 = !{!7, !7, i64 0}
!18 = distinct !{!18, !19}
!19 = !{!"llvm.loop.mustprogress"}
!20 = distinct !{!20, !19}
!21 = distinct !{!21, !19}
